(lp1
S'recv_socket'
p2
aS'create_open_file'
p3
aS'sleep'
p4
aS'open_scmanager'
p5
aS'load_driver'
p6
aS'get_host_by_addr'
p7
aS'create_interface'
p8
aS'create_mutex'
p9
aS'set_value'
p10
aS'enum_items'
p11
aS'get_computer_name'
p12
aS'read_value'
p13
aS'write_value'
p14
aS'change_service_config'
p15
aS'copy_file'
p16
aS'exit_windows'
p17
aS'enum_modules'
p18
aS'bind_socket'
p19
aS'enum_keys'
p20
aS'delete_value'
p21
aS'enum_types'
p22
aS'open_service'
p23
aS'processes'
p24
aS'create_socket'
p25
aS'enum_user'
p26
aS'dump_line'
p27
aS'unload_driver'
p28
aS'enum_values'
p29
aS'thread'
p30
aS'load_dll'
p31
aS'create_window'
p32
aS'read_section_names'
p33
aS'com_create_instance'
p34
aS'message'
p35
aS'get_userinfo'
p36
aS'get_file_attributes'
p37
aS'find_file'
p38
aS'open_file'
p39
aS'get_username'
p40
aS'create_service'
p41
aS'query_value'
p42
aS'create_file'
p43
aS'move_file'
p44
aS'open_key'
p45
aS'send_socket'
p46
aS'vm_write'
p47
aS'delete_file'
p48
aS'create_process_as_user'
p49
aS'get_system_time'
p50
aS'create_mailslot'
p51
aS'com_createole_object'
p52
aS'listen_socket'
p53
aS'enum_share'
p54
aS'open_mutex'
p55
aS'vm_protect'
p56
aS'all_section'
p57
aS'vm_mapviewofsection'
p58
aS'get_windows_directory'
p59
aS'enum_processes'
p60
aS'open_url'
p61
aS'download_file'
p62
aS'com_get_class_object'
p63
aS'kill_process'
p64
aS'load_image'
p65
aS'delete_share'
p66
aS'create_process'
p67
aS'logon_as_user'
p68
aS'get_system_directory'
p69
aS'set_thread_context'
p70
aS'create_process_nt'
p71
aS'destroy_window'
p72
aS'vm_allocate'
p73
aS'enum_handles'
p74
aS'connect_socket'
p75
aS'set_file_time'
p76
aS'start_service'
p77
aS'create_thread_remote'
p78
aS'show_window'
p79
aS'open_process'
p80
aS'impersonate_user'
p81
aS'connect'
p82
aS'enum_services'
p83
aS'process'
p84
aS'vm_read'
p85
aS'check_for_debugger'
p86
aS'delete_service'
p87
aS'read_section'
p88
aS'enum_window'
p89
aS'set_system_time'
p90
aS'add_netjob'
p91
aS'set_windows_hook'
p92
aS'control_service'
p93
aS'accept_socket'
p94
aS'trimmed_bytes'
p95
aS'download_file_to_cache'
p96
aS'find_window'
p97
aS'get_host_by_name'
p98
aS'set_file_attributes'
p99
aS'revert_to_self'
p100
aS'create_key'
p101
aS'create_thread'
p102
aS'enum_subtypes'
p103
aS'delete_key'
p104
aS'create_directory'
p105
aS'remove_directory'
p106
aS'create_namedpipe'
p107
a.